target datalayout = "e-m:e-p270:32:32-p271:32:32-p272:64:64-i64:64-i128:128-f80:128-n8:16:32:64-S128"
target triple = "x86_64-pc-linux-gnu"

%struct.SDL_InitState = type { %struct.SDL_AtomicInt, i64, ptr }
%struct.SDL_AtomicInt = type { i32 }
%struct.SDL_AtomicU32 = type { i32 }
%struct.SDL_Properties = type { ptr, ptr }

@SDL_properties_init = internal global %struct.SDL_InitState zeroinitializer, align 8
@SDL_properties = internal global ptr null, align 8
@SDL_last_properties_id = internal global %struct.SDL_AtomicU32 zeroinitializer, align 4

; Function Attrs: nounwind uwtable
define hidden zeroext i1 @SDL_InitProperties() #0 {
  %1 = alloca i1, align 1
  %2 = alloca i8, align 1
  %3 = call zeroext i1 @SDL_ShouldInit_REAL(ptr noundef @SDL_properties_init)
  br i1 %3, label %5, label %4

4:                                                ; preds = %0
  store i1 true, ptr %1, align 1
  br label %14

5:                                                ; preds = %0
  %6 = call ptr @SDL_CreateHashTable(i32 noundef 0, i1 noundef zeroext true, ptr noundef @SDL_HashID, ptr noundef @SDL_KeyMatchID, ptr noundef null, ptr noundef null)
  store ptr %6, ptr @SDL_properties, align 8
  call void @llvm.lifetime.start.p0(i64 1, ptr %2) #6
  %7 = load ptr, ptr @SDL_properties, align 8
  %8 = icmp ne ptr %7, null
  %9 = zext i1 %8 to i8
  store i8 %9, ptr %2, align 1
  %10 = load i8, ptr %2, align 1, !range !3, !noundef !4
  %11 = trunc i8 %10 to i1
  call void @SDL_SetInitialized_REAL(ptr noundef @SDL_properties_init, i1 noundef zeroext %11)
  %12 = load i8, ptr %2, align 1, !range !3, !noundef !4
  %13 = trunc i8 %12 to i1
  store i1 %13, ptr %1, align 1
  call void @llvm.lifetime.end.p0(i64 1, ptr %2) #6
  br label %14

14:                                               ; preds = %5, %4
  %15 = load i1, ptr %1, align 1
  ret i1 %15
}

; Function Attrs: nounwind uwtable
define internal void @SDL_FreeProperties(ptr noundef %0) #0 {
  %2 = alloca ptr, align 8
  store ptr %0, ptr %2, align 8
  %3 = load ptr, ptr %2, align 8
  %4 = icmp ne ptr %3, null
  br i1 %4, label %5, label %13

5:                                                ; preds = %1
  %6 = load ptr, ptr %2, align 8
  %7 = getelementptr inbounds nuw %struct.SDL_Properties, ptr %6, i32 0, i32 0
  %8 = load ptr, ptr %7, align 8
  call void @SDL_DestroyHashTable(ptr noundef %8)
  %9 = load ptr, ptr %2, align 8
  %10 = getelementptr inbounds nuw %struct.SDL_Properties, ptr %9, i32 0, i32 1
  %11 = load ptr, ptr %10, align 8
  call void @SDL_DestroyMutex_REAL(ptr noundef %11)
  %12 = load ptr, ptr %2, align 8
  call void @SDL_free_REAL(ptr noundef %12)
  br label %13

13:                                               ; preds = %5, %1
  ret void
}

; Function Attrs: nounwind uwtable
define internal zeroext i1 @SDL_CheckInitProperties() #0 {
  %1 = call zeroext i1 @SDL_InitProperties()
  ret i1 %1
}

; Function Attrs: nounwind uwtable
define hidden i32 @SDL_CreateProperties_REAL() #0 {
  %1 = alloca i32, align 4
  %2 = alloca ptr, align 8
  %3 = alloca i32, align 4
  %4 = alloca i32, align 4
  %5 = call zeroext i1 @SDL_CheckInitProperties()
  br i1 %5, label %7, label %6

6:                                                ; preds = %0
  store i32 0, ptr %1, align 4
  br label %67

7:                                                ; preds = %0
  call void @llvm.lifetime.start.p0(i64 8, ptr %2) #6
  %8 = call noalias ptr @SDL_calloc_REAL(i64 noundef 1, i64 noundef 16) #7
  store ptr %8, ptr %2, align 8
  %9 = load ptr, ptr %2, align 8
  %10 = icmp ne ptr %9, null
  br i1 %10, label %12, label %11

11:                                               ; preds = %7
  store i32 0, ptr %1, align 4
  store i32 1, ptr %3, align 4
  br label %66

12:                                               ; preds = %7
  %13 = call ptr @SDL_CreateMutex_REAL()
  %14 = load ptr, ptr %2, align 8
  %15 = getelementptr inbounds nuw %struct.SDL_Properties, ptr %14, i32 0, i32 1
  store ptr %13, ptr %15, align 8
  %16 = load ptr, ptr %2, align 8
  %17 = getelementptr inbounds nuw %struct.SDL_Properties, ptr %16, i32 0, i32 1
  %18 = load ptr, ptr %17, align 8
  %19 = icmp ne ptr %18, null
  br i1 %19, label %22, label %20

20:                                               ; preds = %12
  %21 = load ptr, ptr %2, align 8
  call void @SDL_free_REAL(ptr noundef %21)
  store i32 0, ptr %1, align 4
  store i32 1, ptr %3, align 4
  br label %66

22:                                               ; preds = %12
  %23 = call ptr @SDL_CreateHashTable(i32 noundef 0, i1 noundef zeroext false, ptr noundef @SDL_HashString, ptr noundef @SDL_KeyMatchString, ptr noundef @SDL_FreeProperty, ptr noundef null)
  %24 = load ptr, ptr %2, align 8
  %25 = getelementptr inbounds nuw %struct.SDL_Properties, ptr %24, i32 0, i32 0
  store ptr %23, ptr %25, align 8
  %26 = load ptr, ptr %2, align 8
  %27 = getelementptr inbounds nuw %struct.SDL_Properties, ptr %26, i32 0, i32 0
  %28 = load ptr, ptr %27, align 8
  %29 = icmp ne ptr %28, null
  br i1 %29, label %35, label %30

30:                                               ; preds = %22
  %31 = load ptr, ptr %2, align 8
  %32 = getelementptr inbounds nuw %struct.SDL_Properties, ptr %31, i32 0, i32 1
  %33 = load ptr, ptr %32, align 8
  call void @SDL_DestroyMutex_REAL(ptr noundef %33)
  %34 = load ptr, ptr %2, align 8
  call void @SDL_free_REAL(ptr noundef %34)
  store i32 0, ptr %1, align 4
  store i32 1, ptr %3, align 4
  br label %66

35:                                               ; preds = %22
  call void @llvm.lifetime.start.p0(i64 4, ptr %4) #6
  store i32 0, ptr %4, align 4
  br label %36

36:                                               ; preds = %50, %42, %35
  br label %37

37:                                               ; preds = %36
  %38 = call i32 @SDL_GetAtomicU32_REAL(ptr noundef @SDL_last_properties_id)
  %39 = add i32 %38, 1
  store i32 %39, ptr %4, align 4
  %40 = load i32, ptr %4, align 4
  %41 = icmp eq i32 %40, 0
  br i1 %41, label %42, label %43

42:                                               ; preds = %37
  br label %36

43:                                               ; preds = %37
  %44 = load i32, ptr %4, align 4
  %45 = sub i32 %44, 1
  %46 = load i32, ptr %4, align 4
  %47 = call zeroext i1 @SDL_CompareAndSwapAtomicU32_REAL(ptr noundef @SDL_last_properties_id, i32 noundef %45, i32 noundef %46)
  br i1 %47, label %48, label %49

48:                                               ; preds = %43
  br label %51

49:                                               ; preds = %43
  br label %50

50:                                               ; preds = %49
  br label %36

51:                                               ; preds = %48
  br label %52

52:                                               ; preds = %51
  br label %53

53:                                               ; preds = %52
  br label %54

54:                                               ; preds = %53
  %55 = load ptr, ptr @SDL_properties, align 8
  %56 = load i32, ptr %4, align 4
  %57 = zext i32 %56 to i64
  %58 = inttoptr i64 %57 to ptr
  %59 = load ptr, ptr %2, align 8
  %60 = call zeroext i1 @SDL_InsertIntoHashTable(ptr noundef %55, ptr noundef %58, ptr noundef %59, i1 noundef zeroext false)
  br i1 %60, label %63, label %61

61:                                               ; preds = %54
  %62 = load ptr, ptr %2, align 8
  call void @SDL_FreeProperties(ptr noundef %62)
  store i32 0, ptr %1, align 4
  store i32 1, ptr %3, align 4
  br label %65

63:                                               ; preds = %54
  %64 = load i32, ptr %4, align 4
  store i32 %64, ptr %1, align 4
  store i32 1, ptr %3, align 4
  br label %65

65:                                               ; preds = %63, %61
  call void @llvm.lifetime.end.p0(i64 4, ptr %4) #6
  br label %66

66:                                               ; preds = %65, %30, %20, %11
  call void @llvm.lifetime.end.p0(i64 8, ptr %2) #6
  br label %67

67:                                               ; preds = %66, %6
  %68 = load i32, ptr %1, align 4
  ret i32 %68
}