; Function Attrs: nounwind uwtable
define hidden i32 @SDL_CreateProperties_REAL() local_unnamed_addr #0 {
  %1 = tail call zeroext i1 @SDL_ShouldInit_REAL(ptr noundef nonnull @SDL_properties_init) #6
  br i1 %1, label %SDL_CheckInitProperties.exit, label %SDL_CheckInitProperties.exit.thread

SDL_CheckInitProperties.exit:                     ; preds = %0
  %2 = tail call ptr @SDL_CreateHashTable(i32 noundef 0, i1 noundef zeroext true, ptr noundef nonnull @SDL_HashID, ptr noundef nonnull @SDL_KeyMatchID, ptr noundef null, ptr noundef null) #6
  store ptr %2, ptr @SDL_properties, align 8
  %3 = icmp ne ptr %2, null
  tail call void @SDL_SetInitialized_REAL(ptr noundef nonnull @SDL_properties_init, i1 noundef zeroext %3) #6
  br i1 %3, label %SDL_CheckInitProperties.exit.thread, label %22

SDL_CheckInitProperties.exit.thread:              ; preds = %0, %SDL_CheckInitProperties.exit
  %4 = tail call noalias dereferenceable_or_null(16) ptr @SDL_calloc_REAL(i64 noundef 1, i64 noundef 16) #7
  %.not = icmp eq ptr %4, null
  br i1 %.not, label %22, label %5

5:                                                ; preds = %SDL_CheckInitProperties.exit.thread
  %6 = tail call ptr @SDL_CreateMutex_REAL() #6
  %7 = getelementptr inbounds nuw i8, ptr %4, i64 8
  store ptr %6, ptr %7, align 8
  %.not17 = icmp eq ptr %6, null
  br i1 %.not17, label %.sink.split, label %8

8:                                                ; preds = %5
  %9 = tail call ptr @SDL_CreateHashTable(i32 noundef 0, i1 noundef zeroext false, ptr noundef nonnull @SDL_HashString, ptr noundef nonnull @SDL_KeyMatchString, ptr noundef nonnull @SDL_FreeProperty, ptr noundef null) #6
  store ptr %9, ptr %4, align 8
  %.not18 = icmp eq ptr %9, null
  br i1 %.not18, label %.sink.split.sink.split, label %.preheader

.preheader:                                       ; preds = %8, %.preheader.backedge
  %10 = tail call i32 @SDL_GetAtomicU32_REAL(ptr noundef nonnull @SDL_last_properties_id) #6
  %11 = add i32 %10, 1
  %12 = icmp eq i32 %11, 0
  br i1 %12, label %.preheader.backedge, label %13

.preheader.backedge:                              ; preds = %.preheader, %13
  br label %.preheader

13:                                               ; preds = %.preheader
  %14 = tail call zeroext i1 @SDL_CompareAndSwapAtomicU32_REAL(ptr noundef nonnull @SDL_last_properties_id, i32 noundef %10, i32 noundef %11) #6
  br i1 %14, label %15, label %.preheader.backedge

15:                                               ; preds = %13
  %16 = load ptr, ptr @SDL_properties, align 8
  %17 = zext i32 %11 to i64
  %18 = inttoptr i64 %17 to ptr
  %19 = tail call zeroext i1 @SDL_InsertIntoHashTable(ptr noundef %16, ptr noundef nonnull %18, ptr noundef nonnull %4, i1 noundef zeroext false) #6
  br i1 %19, label %22, label %SDL_FreeProperties.exit

SDL_FreeProperties.exit:                          ; preds = %15
  %20 = load ptr, ptr %4, align 8
  tail call void @SDL_DestroyHashTable(ptr noundef %20) #6
  br label %.sink.split.sink.split

.sink.split.sink.split:                           ; preds = %8, %SDL_FreeProperties.exit
  %21 = load ptr, ptr %7, align 8
  tail call void @SDL_DestroyMutex_REAL(ptr noundef %21) #6
  br label %.sink.split

.sink.split:                                      ; preds = %.sink.split.sink.split, %5
  tail call void @SDL_free_REAL(ptr noundef nonnull %4) #6
  br label %22

22:                                               ; preds = %.sink.split, %SDL_CheckInitProperties.exit.thread, %15, %SDL_CheckInitProperties.exit
  %.0 = phi i32 [ 0, %SDL_CheckInitProperties.exit ], [ 0, %SDL_CheckInitProperties.exit.thread ], [ %11, %15 ], [ 0, %.sink.split ]
  ret i32 %.0
}